target datalayout = "e-m:e-p270:32:32-p271:32:32-p272:64:64-i64:64-i128:128-f80:128-n8:16:32:64-S128"
target triple = "x86_64-pc-linux-gnu"

%class.State = type { [315 x i32], [315 x i16], i32, ptr, [2 x ptr] }

; Function Attrs: mustprogress nounwind uwtable
define hidden void @_ZN5State12_sub_Op_RegNEPK4Node(ptr noundef nonnull align 8 dereferenceable(1920) %0, ptr noundef %1) #1 align 2 {
  %3 = alloca ptr, align 8
  %4 = alloca ptr, align 8
  %5 = alloca i32, align 4
  %6 = alloca i32, align 4
  store ptr %0, ptr %3, align 8
  store ptr %1, ptr %4, align 8
  %7 = load ptr, ptr %3, align 8
  store i32 0, ptr %5, align 4
  %8 = load i32, ptr %5, align 4
  %9 = getelementptr inbounds %class.State, ptr %7, i32 0, i32 0
  %10 = getelementptr inbounds [315 x i32], ptr %9, i64 0, i64 62
  store i32 %8, ptr %10, align 8
  %11 = getelementptr inbounds %class.State, ptr %7, i32 0, i32 1
  %12 = getelementptr inbounds [315 x i16], ptr %11, i64 0, i64 62
  store i16 125, ptr %12, align 4
  store i32 0, ptr %6, align 4
  %13 = load i32, ptr %6, align 4
  %14 = getelementptr inbounds %class.State, ptr %7, i32 0, i32 0
  %15 = getelementptr inbounds [315 x i32], ptr %14, i64 0, i64 59
  store i32 %13, ptr %15, align 4
  %16 = getelementptr inbounds %class.State, ptr %7, i32 0, i32 1
  %17 = getelementptr inbounds [315 x i16], ptr %16, i64 0, i64 59
  store i16 119, ptr %17, align 2
  ret void
}