; Function Attrs: mustprogress nofree norecurse nosync nounwind willreturn memory(argmem: write) uwtable
define hidden void @_ZN5State12_sub_Op_RegNEPK4Node(ptr nocapture noundef nonnull writeonly align 8 dereferenceable(1920) %0, ptr nocapture noundef readnone %1) local_unnamed_addr #0 align 2 {
  %3 = getelementptr inbounds i8, ptr %0, i64 248
  store i32 0, ptr %3, align 8
  %4 = getelementptr inbounds i8, ptr %0, i64 1384
  store i16 125, ptr %4, align 8
  %5 = getelementptr inbounds i8, ptr %0, i64 236
  store i32 0, ptr %5, align 4
  %6 = getelementptr inbounds i8, ptr %0, i64 1378
  store i16 119, ptr %6, align 2
  ret void
}